target datalayout = "e-m:e-p270:32:32-p271:32:32-p272:64:64-i64:64-i128:128-f80:128-n8:16:32:64-S128"
target triple = "x86_64-pc-linux-gnu"

%union.pthread_mutex_t = type { %struct.__pthread_mutex_s }
%struct.__pthread_mutex_s = type { i32, i32, i32, i32, i32, i16, i16, %struct.__pthread_internal_list }
%struct.__pthread_internal_list = type { ptr, ptr }

@item_locks = internal global ptr null, align 8
@item_lock_hashpower = internal global i32 0, align 4

; Function Attrs: nounwind uwtable
define dso_local ptr @item_trylock(i32 noundef %0) #0 {
  %2 = alloca ptr, align 8
  %3 = alloca i32, align 4
  %4 = alloca ptr, align 8
  %5 = alloca i32, align 4
  store i32 %0, ptr %3, align 4, !tbaa !4
  call void @llvm.lifetime.start.p0(i64 8, ptr %4) #8
  %6 = load ptr, ptr @item_locks, align 8, !tbaa !8
  %7 = load i32, ptr %3, align 4, !tbaa !4
  %8 = zext i32 %7 to i64
  %9 = load i32, ptr @item_lock_hashpower, align 4, !tbaa !4
  %10 = zext i32 %9 to i64
  %11 = shl i64 1, %10
  %12 = sub i64 %11, 1
  %13 = and i64 %8, %12
  %14 = getelementptr inbounds nuw %union.pthread_mutex_t, ptr %6, i64 %13
  store ptr %14, ptr %4, align 8, !tbaa !8
  %15 = load ptr, ptr %4, align 8, !tbaa !8
  %16 = call i32 @pthread_mutex_trylock(ptr noundef %15) #8
  %17 = icmp eq i32 %16, 0
  br i1 %17, label %18, label %20

18:                                               ; preds = %1
  %19 = load ptr, ptr %4, align 8, !tbaa !8
  store ptr %19, ptr %2, align 8
  store i32 1, ptr %5, align 4
  br label %21

20:                                               ; preds = %1
  store ptr null, ptr %2, align 8
  store i32 1, ptr %5, align 4
  br label %21

21:                                               ; preds = %20, %18
  call void @llvm.lifetime.end.p0(i64 8, ptr %4) #8
  %22 = load ptr, ptr %2, align 8
  ret ptr %22
}